target datalayout = "e-m:e-p270:32:32-p271:32:32-p272:64:64-i64:64-i128:128-f80:128-n8:16:32:64-S128"
target triple = "x86_64-pc-linux-gnu"

%struct._zend_string = type { %struct._zend_refcounted_h, i64, i64, [1 x i8] }
%struct._zend_refcounted_h = type { i32, %union.anon }
%union.anon = type { i32 }
%struct._zend_execute_data = type { ptr, ptr, ptr, ptr, %struct._zval_struct, ptr, ptr, ptr, ptr }
%struct._zval_struct = type { %union._zend_value, %union.anon.0, %union.anon.3 }
%union._zend_value = type { i64 }
%union.anon.0 = type { i32 }
%union.anon.3 = type { i32 }
%struct.anon.1 = type { i8, i8, %union.anon.2 }
%union.anon.2 = type { i16 }

@.str = private unnamed_addr constant [52 x i8] c"Argument #1 ($data) is not a valid uuencoded string\00", align 1

; Function Attrs: alwaysinline nounwind uwtable
define internal zeroext i8 @zval_get_type(ptr noundef %0) #2 {
  %2 = alloca ptr, align 8
  store ptr %0, ptr %2, align 8, !tbaa !25
  %3 = load ptr, ptr %2, align 8, !tbaa !25
  %4 = getelementptr inbounds nuw %struct._zval_struct, ptr %3, i32 0, i32 1
  %5 = getelementptr inbounds nuw %struct.anon.1, ptr %4, i32 0, i32 0
  %6 = load i8, ptr %5, align 8, !tbaa !13
  ret i8 %6
}

; Function Attrs: alwaysinline nounwind uwtable
define internal zeroext i1 @zend_parse_arg_str_ex(ptr noundef %0, ptr noundef %1, i1 noundef zeroext %2, i32 noundef %3, i1 noundef zeroext %4) #2 {
  %6 = alloca i1, align 1
  %7 = alloca ptr, align 8
  %8 = alloca ptr, align 8
  %9 = alloca i8, align 1
  %10 = alloca i32, align 4
  %11 = alloca i8, align 1
  store ptr %0, ptr %7, align 8, !tbaa !25
  store ptr %1, ptr %8, align 8, !tbaa !28
  %12 = zext i1 %2 to i8
  store i8 %12, ptr %9, align 1, !tbaa !14
  store i32 %3, ptr %10, align 4, !tbaa !27
  %13 = zext i1 %4 to i8
  store i8 %13, ptr %11, align 1, !tbaa !14
  %14 = load ptr, ptr %7, align 8, !tbaa !25
  %15 = call zeroext i8 @zval_get_type(ptr noundef %14)
  %16 = zext i8 %15 to i32
  %17 = icmp eq i32 %16, 6
  %18 = xor i1 %17, true
  %19 = xor i1 %18, true
  %20 = zext i1 %19 to i32
  %21 = sext i32 %20 to i64
  %22 = call i64 @llvm.expect.i64(i64 %21, i64 1)
  %23 = icmp ne i64 %22, 0
  br i1 %23, label %24, label %29

24:                                               ; preds = %5
  %25 = load ptr, ptr %7, align 8, !tbaa !25
  %26 = getelementptr inbounds nuw %struct._zval_struct, ptr %25, i32 0, i32 0
  %27 = load ptr, ptr %26, align 8, !tbaa !13
  %28 = load ptr, ptr %8, align 8, !tbaa !28
  store ptr %27, ptr %28, align 8, !tbaa !11
  br label %53

29:                                               ; preds = %5
  %30 = load i8, ptr %9, align 1, !tbaa !14, !range !16, !noundef !17
  %31 = trunc i8 %30 to i1
  br i1 %31, label %32, label %39

32:                                               ; preds = %29
  %33 = load ptr, ptr %7, align 8, !tbaa !25
  %34 = call zeroext i8 @zval_get_type(ptr noundef %33)
  %35 = zext i8 %34 to i32
  %36 = icmp eq i32 %35, 1
  br i1 %36, label %37, label %39

37:                                               ; preds = %32
  %38 = load ptr, ptr %8, align 8, !tbaa !28
  store ptr null, ptr %38, align 8, !tbaa !11
  br label %52

39:                                               ; preds = %32, %29
  %40 = load i8, ptr %11, align 1, !tbaa !14, !range !16, !noundef !17
  %41 = trunc i8 %40 to i1
  br i1 %41, label %42, label %47

42:                                               ; preds = %39
  %43 = load ptr, ptr %7, align 8, !tbaa !25
  %44 = load ptr, ptr %8, align 8, !tbaa !28
  %45 = load i32, ptr %10, align 4, !tbaa !27
  %46 = call zeroext i1 @zend_flf_parse_arg_str_slow(ptr noundef %43, ptr noundef %44, i32 noundef %45)
  store i1 %46, ptr %6, align 1
  br label %54

47:                                               ; preds = %39
  %48 = load ptr, ptr %7, align 8, !tbaa !25
  %49 = load ptr, ptr %8, align 8, !tbaa !28
  %50 = load i32, ptr %10, align 4, !tbaa !27
  %51 = call zeroext i1 @zend_parse_arg_str_slow(ptr noundef %48, ptr noundef %49, i32 noundef %50)
  store i1 %51, ptr %6, align 1
  br label %54

52:                                               ; preds = %37
  br label %53

53:                                               ; preds = %52, %24
  store i1 true, ptr %6, align 1
  br label %54

54:                                               ; preds = %53, %47, %42
  %55 = load i1, ptr %6, align 1
  ret i1 %55
}

; Function Attrs: alwaysinline nounwind uwtable
define internal i32 @zval_gc_flags(i32 noundef %0) #2 {
  %2 = alloca i32, align 4
  store i32 %0, ptr %2, align 4, !tbaa !27
  %3 = load i32, ptr %2, align 4, !tbaa !27
  %4 = lshr i32 %3, 0
  %5 = and i32 %4, 1008
  ret i32 %5
}

; Function Attrs: alwaysinline nounwind uwtable
define internal zeroext i1 @zend_parse_arg_str(ptr noundef %0, ptr noundef %1, i1 noundef zeroext %2, i32 noundef %3) #2 {
  %5 = alloca ptr, align 8
  %6 = alloca ptr, align 8
  %7 = alloca i8, align 1
  %8 = alloca i32, align 4
  store ptr %0, ptr %5, align 8, !tbaa !25
  store ptr %1, ptr %6, align 8, !tbaa !28
  %9 = zext i1 %2 to i8
  store i8 %9, ptr %7, align 1, !tbaa !14
  store i32 %3, ptr %8, align 4, !tbaa !27
  %10 = load ptr, ptr %5, align 8, !tbaa !25
  %11 = load ptr, ptr %6, align 8, !tbaa !28
  %12 = load i8, ptr %7, align 1, !tbaa !14, !range !16, !noundef !17
  %13 = trunc i8 %12 to i1
  %14 = load i32, ptr %8, align 4, !tbaa !27
  %15 = call zeroext i1 @zend_parse_arg_str_ex(ptr noundef %10, ptr noundef %11, i1 noundef zeroext %13, i32 noundef %14, i1 noundef zeroext false)
  ret i1 %15
}

; Function Attrs: nounwind uwtable
define hidden void @zif_convert_uudecode(ptr noundef %0, ptr noundef %1) #0 {
  %3 = alloca ptr, align 8
  %4 = alloca ptr, align 8
  %5 = alloca ptr, align 8
  %6 = alloca ptr, align 8
  %7 = alloca i32, align 4
  %8 = alloca i32, align 4
  %9 = alloca i32, align 4
  %10 = alloca i32, align 4
  %11 = alloca i32, align 4
  %12 = alloca ptr, align 8
  %13 = alloca ptr, align 8
  %14 = alloca i32, align 4
  %15 = alloca ptr, align 8
  %16 = alloca i8, align 1
  %17 = alloca i8, align 1
  %18 = alloca i32, align 4
  %19 = alloca i32, align 4
  %20 = alloca ptr, align 8
  %21 = alloca ptr, align 8
  store ptr %0, ptr %3, align 8, !tbaa !23
  store ptr %1, ptr %4, align 8, !tbaa !25
  call void @llvm.lifetime.start.p0(i64 8, ptr %5) #11
  call void @llvm.lifetime.start.p0(i64 8, ptr %6) #11
  br label %22

22:                                               ; preds = %2
  call void @llvm.lifetime.start.p0(i64 4, ptr %7) #11
  store i32 0, ptr %7, align 4, !tbaa !27
  call void @llvm.lifetime.start.p0(i64 4, ptr %8) #11
  store i32 1, ptr %8, align 4, !tbaa !27
  call void @llvm.lifetime.start.p0(i64 4, ptr %9) #11
  store i32 1, ptr %9, align 4, !tbaa !27
  call void @llvm.lifetime.start.p0(i64 4, ptr %10) #11
  %23 = load ptr, ptr %3, align 8, !tbaa !23
  %24 = getelementptr inbounds nuw %struct._zend_execute_data, ptr %23, i32 0, i32 4
  %25 = getelementptr inbounds nuw %struct._zval_struct, ptr %24, i32 0, i32 2
  %26 = load i32, ptr %25, align 4, !tbaa !13
  store i32 %26, ptr %10, align 4, !tbaa !27
  call void @llvm.lifetime.start.p0(i64 4, ptr %11) #11
  store i32 0, ptr %11, align 4, !tbaa !27
  call void @llvm.lifetime.start.p0(i64 8, ptr %12) #11
  call void @llvm.lifetime.start.p0(i64 8, ptr %13) #11
  store ptr null, ptr %13, align 8, !tbaa !25
  call void @llvm.lifetime.start.p0(i64 4, ptr %14) #11
  store i32 0, ptr %14, align 4, !tbaa !27
  call void @llvm.lifetime.start.p0(i64 8, ptr %15) #11
  store ptr null, ptr %15, align 8, !tbaa !4
  call void @llvm.lifetime.start.p0(i64 1, ptr %16) #11
  store i8 0, ptr %16, align 1, !tbaa !14
  call void @llvm.lifetime.start.p0(i64 1, ptr %17) #11
  store i8 0, ptr %17, align 1, !tbaa !14
  call void @llvm.lifetime.start.p0(i64 4, ptr %18) #11
  store i32 0, ptr %18, align 4, !tbaa !27
  br label %27

27:                                               ; preds = %22
  %28 = load i32, ptr %10, align 4, !tbaa !27
  %29 = load i32, ptr %8, align 4, !tbaa !27
  %30 = icmp ult i32 %28, %29
  %31 = xor i1 %30, true
  %32 = xor i1 %31, true
  %33 = zext i1 %32 to i32
  %34 = sext i32 %33 to i64
  %35 = call i64 @llvm.expect.i64(i64 %34, i64 0)
  %36 = icmp ne i64 %35, 0
  br i1 %36, label %47, label %37

37:                                               ; preds = %27
  %38 = load i32, ptr %10, align 4, !tbaa !27
  %39 = load i32, ptr %9, align 4, !tbaa !27
  %40 = icmp ugt i32 %38, %39
  %41 = xor i1 %40, true
  %42 = xor i1 %41, true
  %43 = zext i1 %42 to i32
  %44 = sext i32 %43 to i64
  %45 = call i64 @llvm.expect.i64(i64 %44, i64 0)
  %46 = icmp ne i64 %45, 0
  br i1 %46, label %47, label %50

47:                                               ; preds = %37, %27
  %48 = load i32, ptr %8, align 4, !tbaa !27
  %49 = load i32, ptr %9, align 4, !tbaa !27
  call void @zend_wrong_parameters_count_error(i32 noundef %48, i32 noundef %49)
  store i32 1, ptr %18, align 4, !tbaa !27
  br label %114

50:                                               ; preds = %37
  %51 = load ptr, ptr %3, align 8, !tbaa !23
  %52 = getelementptr inbounds %struct._zval_struct, ptr %51, i64 4
  store ptr %52, ptr %12, align 8, !tbaa !25
  %53 = load i32, ptr %11, align 4, !tbaa !27
  %54 = add i32 %53, 1
  store i32 %54, ptr %11, align 4, !tbaa !27
  %55 = load i32, ptr %11, align 4, !tbaa !27
  %56 = load i32, ptr %8, align 4, !tbaa !27
  %57 = icmp ule i32 %55, %56
  br i1 %57, label %63, label %58

58:                                               ; preds = %50
  %59 = load i8, ptr %17, align 1, !tbaa !14, !range !16, !noundef !17
  %60 = trunc i8 %59 to i1
  %61 = zext i1 %60 to i32
  %62 = icmp eq i32 %61, 1
  br label %63

63:                                               ; preds = %58, %50
  %64 = phi i1 [ true, %50 ], [ %62, %58 ]
  call void @llvm.assume(i1 %64)
  %65 = load i32, ptr %11, align 4, !tbaa !27
  %66 = load i32, ptr %8, align 4, !tbaa !27
  %67 = icmp ugt i32 %65, %66
  br i1 %67, label %73, label %68

68:                                               ; preds = %63
  %69 = load i8, ptr %17, align 1, !tbaa !14, !range !16, !noundef !17
  %70 = trunc i8 %69 to i1
  %71 = zext i1 %70 to i32
  %72 = icmp eq i32 %71, 0
  br label %73

73:                                               ; preds = %68, %63
  %74 = phi i1 [ true, %63 ], [ %72, %68 ]
  call void @llvm.assume(i1 %74)
  %75 = load i8, ptr %17, align 1, !tbaa !14, !range !16, !noundef !17
  %76 = trunc i8 %75 to i1
  br i1 %76, label %77, label %89

77:                                               ; preds = %73
  %78 = load i32, ptr %11, align 4, !tbaa !27
  %79 = load i32, ptr %10, align 4, !tbaa !27
  %80 = icmp ugt i32 %78, %79
  %81 = xor i1 %80, true
  %82 = xor i1 %81, true
  %83 = zext i1 %82 to i32
  %84 = sext i32 %83 to i64
  %85 = call i64 @llvm.expect.i64(i64 %84, i64 0)
  %86 = icmp ne i64 %85, 0
  br i1 %86, label %87, label %88

87:                                               ; preds = %77
  br label %114

88:                                               ; preds = %77
  br label %89

89:                                               ; preds = %88, %73
  %90 = load ptr, ptr %12, align 8, !tbaa !25
  %91 = getelementptr inbounds nuw %struct._zval_struct, ptr %90, i32 1
  store ptr %91, ptr %12, align 8, !tbaa !25
  %92 = load ptr, ptr %12, align 8, !tbaa !25
  store ptr %92, ptr %13, align 8, !tbaa !25
  %93 = load ptr, ptr %13, align 8, !tbaa !25
  %94 = load i32, ptr %11, align 4, !tbaa !27
  %95 = call zeroext i1 @zend_parse_arg_str(ptr noundef %93, ptr noundef %5, i1 noundef zeroext false, i32 noundef %94)
  %96 = xor i1 %95, true
  %97 = xor i1 %96, true
  %98 = xor i1 %97, true
  %99 = zext i1 %98 to i32
  %100 = sext i32 %99 to i64
  %101 = call i64 @llvm.expect.i64(i64 %100, i64 0)
  %102 = icmp ne i64 %101, 0
  br i1 %102, label %103, label %104

103:                                              ; preds = %89
  store i32 4, ptr %14, align 4, !tbaa !27
  store i32 9, ptr %18, align 4, !tbaa !27
  br label %114

104:                                              ; preds = %89
  %105 = load i32, ptr %11, align 4, !tbaa !27
  %106 = load i32, ptr %9, align 4, !tbaa !27
  %107 = icmp eq i32 %105, %106
  br i1 %107, label %111, label %108

108:                                              ; preds = %104
  %109 = load i32, ptr %9, align 4, !tbaa !27
  %110 = icmp eq i32 %109, -1
  br label %111

111:                                              ; preds = %108, %104
  %112 = phi i1 [ true, %104 ], [ %110, %108 ]
  call void @llvm.assume(i1 %112)
  br label %113

113:                                              ; preds = %111
  br label %114

114:                                              ; preds = %113, %103, %87, %47
  %115 = load i32, ptr %18, align 4, !tbaa !27
  %116 = icmp ne i32 %115, 0
  %117 = xor i1 %116, true
  %118 = xor i1 %117, true
  %119 = zext i1 %118 to i32
  %120 = sext i32 %119 to i64
  %121 = call i64 @llvm.expect.i64(i64 %120, i64 0)
  %122 = icmp ne i64 %121, 0
  br i1 %122, label %123, label %129

123:                                              ; preds = %114
  %124 = load i32, ptr %18, align 4, !tbaa !27
  %125 = load i32, ptr %11, align 4, !tbaa !27
  %126 = load ptr, ptr %15, align 8, !tbaa !4
  %127 = load i32, ptr %14, align 4, !tbaa !27
  %128 = load ptr, ptr %13, align 8, !tbaa !25
  call void @zend_wrong_parameter_error(i32 noundef %124, i32 noundef %125, ptr noundef %126, i32 noundef %127, ptr noundef %128)
  store i32 1, ptr %19, align 4
  br label %130

129:                                              ; preds = %114
  store i32 0, ptr %19, align 4
  br label %130

130:                                              ; preds = %129, %123
  call void @llvm.lifetime.end.p0(i64 4, ptr %18) #11
  call void @llvm.lifetime.end.p0(i64 1, ptr %17) #11
  call void @llvm.lifetime.end.p0(i64 1, ptr %16) #11
  call void @llvm.lifetime.end.p0(i64 8, ptr %15) #11
  call void @llvm.lifetime.end.p0(i64 4, ptr %14) #11
  call void @llvm.lifetime.end.p0(i64 8, ptr %13) #11
  call void @llvm.lifetime.end.p0(i64 8, ptr %12) #11
  call void @llvm.lifetime.end.p0(i64 4, ptr %11) #11
  call void @llvm.lifetime.end.p0(i64 4, ptr %10) #11
  call void @llvm.lifetime.end.p0(i64 4, ptr %9) #11
  call void @llvm.lifetime.end.p0(i64 4, ptr %8) #11
  call void @llvm.lifetime.end.p0(i64 4, ptr %7) #11
  %131 = load i32, ptr %19, align 4
  switch i32 %131, label %174 [
    i32 0, label %132
  ]

132:                                              ; preds = %130
  br label %133

133:                                              ; preds = %132
  br label %134

134:                                              ; preds = %133
  %135 = load ptr, ptr %5, align 8, !tbaa !11
  %136 = getelementptr inbounds nuw %struct._zend_string, ptr %135, i32 0, i32 3
  %137 = getelementptr inbounds [1 x i8], ptr %136, i64 0, i64 0
  %138 = load ptr, ptr %5, align 8, !tbaa !11
  %139 = getelementptr inbounds nuw %struct._zend_string, ptr %138, i32 0, i32 2
  %140 = load i64, ptr %139, align 8, !tbaa !22
  %141 = call ptr @php_uudecode(ptr noundef %137, i64 noundef %140)
  store ptr %141, ptr %6, align 8, !tbaa !11
  %142 = icmp eq ptr %141, null
  br i1 %142, label %143, label %152

143:                                              ; preds = %134
  call void (ptr, i32, ptr, ...) @php_error_docref(ptr noundef null, i32 noundef 2, ptr noundef @.str)
  br label %144

144:                                              ; preds = %143
  br label %145

145:                                              ; preds = %144
  %146 = load ptr, ptr %4, align 8, !tbaa !25
  %147 = getelementptr inbounds nuw %struct._zval_struct, ptr %146, i32 0, i32 1
  store i32 2, ptr %147, align 8, !tbaa !13
  br label %148

148:                                              ; preds = %145
  br label %149

149:                                              ; preds = %148
  store i32 1, ptr %19, align 4
  br label %174

150:                                              ; No predecessors!
  br label %151

151:                                              ; preds = %150
  br label %152

152:                                              ; preds = %151, %134
  br label %153

153:                                              ; preds = %152
  br label %154

154:                                              ; preds = %153
  call void @llvm.lifetime.start.p0(i64 8, ptr %20) #11
  %155 = load ptr, ptr %4, align 8, !tbaa !25
  store ptr %155, ptr %20, align 8, !tbaa !25
  call void @llvm.lifetime.start.p0(i64 8, ptr %21) #11
  %156 = load ptr, ptr %6, align 8, !tbaa !11
  store ptr %156, ptr %21, align 8, !tbaa !11
  %157 = load ptr, ptr %21, align 8, !tbaa !11
  %158 = load ptr, ptr %20, align 8, !tbaa !25
  %159 = getelementptr inbounds nuw %struct._zval_struct, ptr %158, i32 0, i32 0
  store ptr %157, ptr %159, align 8, !tbaa !13
  %160 = load ptr, ptr %21, align 8, !tbaa !11
  %161 = getelementptr inbounds nuw %struct._zend_string, ptr %160, i32 0, i32 0
  %162 = getelementptr inbounds nuw %struct._zend_refcounted_h, ptr %161, i32 0, i32 1
  %163 = load i32, ptr %162, align 4, !tbaa !13
  %164 = call i32 @zval_gc_flags(i32 noundef %163)
  %165 = and i32 %164, 64
  %166 = icmp ne i32 %165, 0
  %167 = select i1 %166, i32 6, i32 262
  %168 = load ptr, ptr %20, align 8, !tbaa !25
  %169 = getelementptr inbounds nuw %struct._zval_struct, ptr %168, i32 0, i32 1
  store i32 %167, ptr %169, align 8, !tbaa !13
  call void @llvm.lifetime.end.p0(i64 8, ptr %21) #11
  call void @llvm.lifetime.end.p0(i64 8, ptr %20) #11
  br label %170

170:                                              ; preds = %154
  br label %171

171:                                              ; preds = %170
  store i32 1, ptr %19, align 4
  br label %174

172:                                              ; No predecessors!
  br label %173

173:                                              ; preds = %172
  store i32 0, ptr %19, align 4
  br label %174

174:                                              ; preds = %173, %171, %149, %130
  call void @llvm.lifetime.end.p0(i64 8, ptr %6) #11
  call void @llvm.lifetime.end.p0(i64 8, ptr %5) #11
  %175 = load i32, ptr %19, align 4
  switch i32 %175, label %177 [
    i32 0, label %176
    i32 1, label %176
  ]

176:                                              ; preds = %174, %174
  ret void

177:                                              ; preds = %174
  unreachable
}