; Function Attrs: nounwind uwtable
define hidden void @zif_convert_uudecode(ptr noundef %0, ptr noundef writeonly captures(none) %1) local_unnamed_addr #0 {
  %3 = alloca ptr, align 8
  call void @llvm.lifetime.start.p0(i64 8, ptr nonnull %3) #8
  %4 = getelementptr inbounds nuw i8, ptr %0, i64 44
  %5 = load i32, ptr %4, align 4, !tbaa !9
  %cond = icmp eq i32 %5, 1
  br i1 %cond, label %6, label %.thread58, !prof !15

.thread58:                                        ; preds = %2
  tail call void @zend_wrong_parameters_count_error(i32 noundef 1, i32 noundef 1) #8
  br label %13

6:                                                ; preds = %2
  %7 = getelementptr inbounds nuw i8, ptr %0, i64 80
  %8 = getelementptr inbounds nuw i8, ptr %0, i64 88
  %9 = load i8, ptr %8, align 8, !tbaa !9
  %10 = icmp eq i8 %9, 6
  br i1 %10, label %.thread68, label %zend_parse_arg_str_ex.exit, !prof !14

.thread68:                                        ; preds = %6
  %11 = load ptr, ptr %7, align 8, !tbaa !9
  store ptr %11, ptr %3, align 8, !tbaa !16
  br label %.critedge

zend_parse_arg_str_ex.exit:                       ; preds = %6
  %12 = call zeroext i1 @zend_parse_arg_str_slow(ptr noundef nonnull %7, ptr noundef nonnull %3, i32 noundef 1) #8
  %cond.fr48 = freeze i1 %12
  br i1 %cond.fr48, label %zend_parse_arg_str_ex.exit..critedge_crit_edge, label %13, !prof !19

zend_parse_arg_str_ex.exit..critedge_crit_edge:   ; preds = %zend_parse_arg_str_ex.exit
  %.pre = load ptr, ptr %3, align 8, !tbaa !16
  br label %.critedge

13:                                               ; preds = %zend_parse_arg_str_ex.exit, %.thread58
  %.067 = phi i32 [ 0, %.thread58 ], [ 1, %zend_parse_arg_str_ex.exit ]
  %.03966 = phi i32 [ 1, %.thread58 ], [ 9, %zend_parse_arg_str_ex.exit ]
  %.04065 = phi ptr [ null, %.thread58 ], [ %7, %zend_parse_arg_str_ex.exit ]
  %.04164 = phi i32 [ 0, %.thread58 ], [ 4, %zend_parse_arg_str_ex.exit ]
  call void @zend_wrong_parameter_error(i32 noundef %.03966, i32 noundef %.067, ptr noundef null, i32 noundef %.04164, ptr noundef %.04065) #8
  br label %28

.critedge:                                        ; preds = %zend_parse_arg_str_ex.exit..critedge_crit_edge, %.thread68
  %14 = phi ptr [ %.pre, %zend_parse_arg_str_ex.exit..critedge_crit_edge ], [ %11, %.thread68 ]
  %15 = getelementptr inbounds nuw i8, ptr %14, i64 24
  %16 = getelementptr inbounds nuw i8, ptr %14, i64 16
  %17 = load i64, ptr %16, align 8, !tbaa !13
  %18 = call ptr @php_uudecode(ptr noundef nonnull %15, i64 noundef %17)
  %19 = icmp eq ptr %18, null
  br i1 %19, label %20, label %22

20:                                               ; preds = %.critedge
  call void (ptr, i32, ptr, ...) @php_error_docref(ptr noundef null, i32 noundef 2, ptr noundef nonnull @.str) #8
  %21 = getelementptr inbounds nuw i8, ptr %1, i64 8
  store i32 2, ptr %21, align 8, !tbaa !9
  br label %28

22:                                               ; preds = %.critedge
  store ptr %18, ptr %1, align 8, !tbaa !9
  %23 = getelementptr inbounds nuw i8, ptr %18, i64 4
  %24 = load i32, ptr %23, align 4, !tbaa !9
  %25 = and i32 %24, 64
  %.not45 = icmp eq i32 %25, 0
  %26 = select i1 %.not45, i32 262, i32 6
  %27 = getelementptr inbounds nuw i8, ptr %1, i64 8
  store i32 %26, ptr %27, align 8, !tbaa !9
  br label %28

28:                                               ; preds = %13, %22, %20
  call void @llvm.lifetime.end.p0(i64 8, ptr nonnull %3) #8
  ret void
}